target datalayout = "e-m:e-p270:32:32-p271:32:32-p272:64:64-i64:64-i128:128-f80:128-n8:16:32:64-S128"
target triple = "x86_64-unknown-linux-gnu"

%"class.proxygen::ZlibStreamCompressor" = type <{ %"class.proxygen::StreamCompressor", i32, i32, %struct.z_stream_s, i32, i8, [3 x i8] }>
%"class.proxygen::StreamCompressor" = type { ptr }
%struct.z_stream_s = type { ptr, i32, i64, ptr, i32, i64, ptr, ptr, ptr, ptr, ptr, i32, i64, i64 }

; Function Attrs: mustprogress nounwind uwtable
define linkonce_odr void @_ZN8proxygen16StreamCompressorD2Ev(ptr noundef nonnull align 8 dereferenceable(8) %this) unnamed_addr #3 comdat align 2 {
entry:
  %this.addr = alloca ptr, align 8
  store ptr %this, ptr %this.addr, align 8
  ret void
}

; Function Attrs: mustprogress nounwind uwtable
define void @_ZN8proxygen20ZlibStreamCompressorD2Ev(ptr noundef nonnull align 8 dereferenceable(133) %this) unnamed_addr #3 align 2 personality ptr @__gxx_personality_v0 {
entry:
  %this.addr = alloca ptr, align 8
  store ptr %this, ptr %this.addr, align 8
  %this1 = load ptr, ptr %this.addr, align 8
  store ptr getelementptr inbounds ({ [6 x ptr] }, ptr @_ZTVN8proxygen20ZlibStreamCompressorE, i32 0, i32 0, i32 2), ptr %this1, align 8
  %init_ = getelementptr inbounds %"class.proxygen::ZlibStreamCompressor", ptr %this1, i32 0, i32 5
  %0 = load i8, ptr %init_, align 4
  %tobool = trunc i8 %0 to i1
  br i1 %tobool, label %if.then, label %if.end

if.then:                                          ; preds = %entry
  %zlibStream_ = getelementptr inbounds %"class.proxygen::ZlibStreamCompressor", ptr %this1, i32 0, i32 3
  %call = invoke i32 @deflateEnd(ptr noundef %zlibStream_)
          to label %invoke.cont unwind label %terminate.lpad

invoke.cont:                                      ; preds = %if.then
  %status_ = getelementptr inbounds %"class.proxygen::ZlibStreamCompressor", ptr %this1, i32 0, i32 4
  store i32 %call, ptr %status_, align 8
  br label %if.end

if.end:                                           ; preds = %invoke.cont, %entry
  call void @_ZN8proxygen16StreamCompressorD2Ev(ptr noundef nonnull align 8 dereferenceable(8) %this1) #12
  ret void

terminate.lpad:                                   ; preds = %if.then
  %1 = landingpad { ptr, i32 }
          catch ptr null
  %2 = extractvalue { ptr, i32 } %1, 0
  call void @__clang_call_terminate(ptr %2) #11
  unreachable
}