; Function Attrs: mustprogress nounwind uwtable
define void @_ZN8proxygen20ZlibStreamCompressorD2Ev(ptr noundef nonnull align 8 dereferenceable(133) %this) unnamed_addr #5 align 2 personality ptr @__gxx_personality_v0 {
entry:
  store ptr getelementptr inbounds ({ [6 x ptr] }, ptr @_ZTVN8proxygen20ZlibStreamCompressorE, i64 0, i32 0, i64 2), ptr %this, align 8
  %init_ = getelementptr inbounds i8, ptr %this, i64 132
  %0 = load i8, ptr %init_, align 4
  %1 = and i8 %0, 1
  %tobool.not = icmp eq i8 %1, 0
  br i1 %tobool.not, label %if.end, label %if.then

if.then:                                          ; preds = %entry
  %zlibStream_ = getelementptr inbounds i8, ptr %this, i64 16
  %call = invoke i32 @deflateEnd(ptr noundef nonnull %zlibStream_)
          to label %invoke.cont unwind label %terminate.lpad

invoke.cont:                                      ; preds = %if.then
  %status_ = getelementptr inbounds i8, ptr %this, i64 128
  store i32 %call, ptr %status_, align 8
  br label %if.end

if.end:                                           ; preds = %invoke.cont, %entry
  ret void

terminate.lpad:                                   ; preds = %if.then
  %2 = landingpad { ptr, i32 }
          catch ptr null
  %3 = extractvalue { ptr, i32 } %2, 0
  tail call void @__clang_call_terminate(ptr %3) #12
  unreachable
}